target datalayout = "e-m:e-p270:32:32-p271:32:32-p272:64:64-i64:64-i128:128-f80:128-n8:16:32:64-S128"
target triple = "x86_64-pc-linux-gnu"

%struct.If_Man_t_ = type { ptr, ptr, ptr, ptr, ptr, ptr, ptr, ptr, [5 x i32], i32, float, float, float, float, i32, float, i32, i32, [4 x ptr], ptr, i32, i32, i32, ptr, [3 x [32 x i32]], i32, i32, i32, ptr, ptr, ptr, ptr, ptr, ptr, ptr, i32, i32, i32, [16 x i32], i32, i32, i32, i32, ptr, ptr, ptr, ptr, ptr, i32, i32, [32 x i32], [32 x i32], i32, i32, i32, i32, ptr, [16 x ptr], [16 x ptr], [16 x ptr], [16 x ptr], [16 x ptr], [16 x ptr], [16 x ptr], ptr, ptr, ptr, ptr, [32 x i8], i32, i32, i32, [6 x i64], [2 x i32], [2 x i32], ptr, [15 x i32], ptr, ptr, ptr, [16 x i32], ptr, ptr, ptr, ptr, [2 x i32], [2 x i32], [2 x ptr], ptr }
%struct.If_Obj_t_ = type { i32, i32, i32, i32, i32, i32, ptr, ptr, ptr, float, float, float, %union.anon.1, ptr, %struct.If_Cut_t_ }
%union.anon.1 = type { ptr }
%struct.If_Cut_t_ = type <{ float, float, float, float, i32, i32, i32, i48, [0 x i32] }>
%struct.Vec_Ptr_t_ = type { i32, i32, ptr }

@.str.3 = private unnamed_addr constant [52 x i8] c"Nwk_NodeIfToHop(): Computing local AIG has failed.\0A\00", align 1

; Function Attrs: nounwind uwtable
define internal ptr @Vec_PtrEntry(ptr noundef %0, i32 noundef %1) #0 {
  %3 = alloca ptr, align 8
  %4 = alloca i32, align 4
  store ptr %0, ptr %3, align 8
  store i32 %1, ptr %4, align 4
  %5 = load ptr, ptr %3, align 8
  %6 = getelementptr inbounds %struct.Vec_Ptr_t_, ptr %5, i32 0, i32 2
  %7 = load ptr, ptr %6, align 8
  %8 = load i32, ptr %4, align 4
  %9 = sext i32 %8 to i64
  %10 = getelementptr inbounds ptr, ptr %7, i64 %9
  %11 = load ptr, ptr %10, align 8
  ret ptr %11
}

; Function Attrs: nounwind uwtable
define internal i32 @Vec_PtrSize(ptr noundef %0) #0 {
  %2 = alloca ptr, align 8
  store ptr %0, ptr %2, align 8
  %3 = load ptr, ptr %2, align 8
  %4 = getelementptr inbounds %struct.Vec_Ptr_t_, ptr %3, i32 0, i32 1
  %5 = load i32, ptr %4, align 4
  ret i32 %5
}

; Function Attrs: nounwind uwtable
define internal void @Vec_PtrClear(ptr noundef %0) #0 {
  %2 = alloca ptr, align 8
  store ptr %0, ptr %2, align 8
  %3 = load ptr, ptr %2, align 8
  %4 = getelementptr inbounds %struct.Vec_Ptr_t_, ptr %3, i32 0, i32 1
  store i32 0, ptr %4, align 4
  ret void
}

; Function Attrs: nounwind uwtable
define internal void @If_CutSetData(ptr noundef %0, ptr noundef %1) #0 {
  %3 = alloca ptr, align 8
  %4 = alloca ptr, align 8
  store ptr %0, ptr %3, align 8
  store ptr %1, ptr %4, align 8
  %5 = load ptr, ptr %4, align 8
  %6 = load ptr, ptr %3, align 8
  store ptr %5, ptr %6, align 8
  ret void
}

; Function Attrs: nounwind uwtable
define internal ptr @If_ManObj(ptr noundef %0, i32 noundef %1) #0 {
  %3 = alloca ptr, align 8
  %4 = alloca i32, align 4
  store ptr %0, ptr %3, align 8
  store i32 %1, ptr %4, align 4
  %5 = load ptr, ptr %3, align 8
  %6 = getelementptr inbounds %struct.If_Man_t_, ptr %5, i32 0, i32 5
  %7 = load ptr, ptr %6, align 8
  %8 = load i32, ptr %4, align 4
  %9 = call ptr @Vec_PtrEntry(ptr noundef %7, i32 noundef %8)
  ret ptr %9
}

; Function Attrs: nounwind uwtable
define internal ptr @If_ObjCutBest(ptr noundef %0) #0 {
  %2 = alloca ptr, align 8
  store ptr %0, ptr %2, align 8
  %3 = load ptr, ptr %2, align 8
  %4 = getelementptr inbounds %struct.If_Obj_t_, ptr %3, i32 0, i32 14
  ret ptr %4
}

; Function Attrs: nounwind uwtable
define ptr @Nwk_NodeIfToHop(ptr noundef %0, ptr noundef %1, ptr noundef %2) #0 {
  %4 = alloca ptr, align 8
  %5 = alloca ptr, align 8
  %6 = alloca ptr, align 8
  %7 = alloca ptr, align 8
  %8 = alloca ptr, align 8
  %9 = alloca ptr, align 8
  %10 = alloca ptr, align 8
  %11 = alloca i32, align 4
  store ptr %0, ptr %5, align 8
  store ptr %1, ptr %6, align 8
  store ptr %2, ptr %7, align 8
  %12 = load ptr, ptr %7, align 8
  %13 = call ptr @If_ObjCutBest(ptr noundef %12)
  store ptr %13, ptr %8, align 8
  store i32 0, ptr %11, align 4
  br label %14

14:                                               ; preds = %41, %3
  %15 = load i32, ptr %11, align 4
  %16 = load ptr, ptr %8, align 8
  %17 = getelementptr inbounds %struct.If_Cut_t_, ptr %16, i32 0, i32 7
  %18 = load i64, ptr %17, align 4
  %19 = lshr i64 %18, 24
  %20 = and i64 %19, 255
  %21 = trunc i64 %20 to i32
  %22 = icmp slt i32 %15, %21
  br i1 %22, label %23, label %33

23:                                               ; preds = %14
  %24 = load ptr, ptr %6, align 8
  %25 = load ptr, ptr %8, align 8
  %26 = getelementptr inbounds %struct.If_Cut_t_, ptr %25, i32 0, i32 8
  %27 = load i32, ptr %11, align 4
  %28 = sext i32 %27 to i64
  %29 = getelementptr inbounds [0 x i32], ptr %26, i64 0, i64 %28
  %30 = load i32, ptr %29, align 4
  %31 = call ptr @If_ManObj(ptr noundef %24, i32 noundef %30)
  store ptr %31, ptr %10, align 8
  %32 = icmp ne ptr %31, null
  br label %33

33:                                               ; preds = %23, %14
  %34 = phi i1 [ false, %14 ], [ %32, %23 ]
  br i1 %34, label %35, label %44

35:                                               ; preds = %33
  %36 = load ptr, ptr %10, align 8
  %37 = call ptr @If_ObjCutBest(ptr noundef %36)
  %38 = load ptr, ptr %5, align 8
  %39 = load i32, ptr %11, align 4
  %40 = call ptr @Hop_IthVar(ptr noundef %38, i32 noundef %39)
  call void @If_CutSetData(ptr noundef %37, ptr noundef %40)
  br label %41

41:                                               ; preds = %35
  %42 = load i32, ptr %11, align 4
  %43 = add nsw i32 %42, 1
  store i32 %43, ptr %11, align 4
  br label %14, !llvm.loop !8

44:                                               ; preds = %33
  %45 = load ptr, ptr %6, align 8
  %46 = getelementptr inbounds %struct.If_Man_t_, ptr %45, i32 0, i32 7
  %47 = load ptr, ptr %46, align 8
  call void @Vec_PtrClear(ptr noundef %47)
  %48 = load ptr, ptr %5, align 8
  %49 = load ptr, ptr %6, align 8
  %50 = load ptr, ptr %7, align 8
  %51 = load ptr, ptr %6, align 8
  %52 = getelementptr inbounds %struct.If_Man_t_, ptr %51, i32 0, i32 7
  %53 = load ptr, ptr %52, align 8
  %54 = call ptr @Nwk_NodeIfToHop2_rec(ptr noundef %48, ptr noundef %49, ptr noundef %50, ptr noundef %53)
  store ptr %54, ptr %9, align 8
  %55 = load ptr, ptr %9, align 8
  %56 = inttoptr i64 1 to ptr
  %57 = icmp eq ptr %55, %56
  br i1 %57, label %58, label %60

58:                                               ; preds = %44
  %59 = call i32 (ptr, ...) @printf(ptr noundef @.str.3)
  store ptr null, ptr %4, align 8
  br label %111

60:                                               ; preds = %44
  store i32 0, ptr %11, align 4
  br label %61

61:                                               ; preds = %85, %60
  %62 = load i32, ptr %11, align 4
  %63 = load ptr, ptr %8, align 8
  %64 = getelementptr inbounds %struct.If_Cut_t_, ptr %63, i32 0, i32 7
  %65 = load i64, ptr %64, align 4
  %66 = lshr i64 %65, 24
  %67 = and i64 %66, 255
  %68 = trunc i64 %67 to i32
  %69 = icmp slt i32 %62, %68
  br i1 %69, label %70, label %80

70:                                               ; preds = %61
  %71 = load ptr, ptr %6, align 8
  %72 = load ptr, ptr %8, align 8
  %73 = getelementptr inbounds %struct.If_Cut_t_, ptr %72, i32 0, i32 8
  %74 = load i32, ptr %11, align 4
  %75 = sext i32 %74 to i64
  %76 = getelementptr inbounds [0 x i32], ptr %73, i64 0, i64 %75
  %77 = load i32, ptr %76, align 4
  %78 = call ptr @If_ManObj(ptr noundef %71, i32 noundef %77)
  store ptr %78, ptr %10, align 8
  %79 = icmp ne ptr %78, null
  br label %80

80:                                               ; preds = %70, %61
  %81 = phi i1 [ false, %61 ], [ %79, %70 ]
  br i1 %81, label %82, label %88

82:                                               ; preds = %80
  %83 = load ptr, ptr %10, align 8
  %84 = call ptr @If_ObjCutBest(ptr noundef %83)
  call void @If_CutSetData(ptr noundef %84, ptr noundef null)
  br label %85

85:                                               ; preds = %82
  %86 = load i32, ptr %11, align 4
  %87 = add nsw i32 %86, 1
  store i32 %87, ptr %11, align 4
  br label %61, !llvm.loop !9

88:                                               ; preds = %80
  store i32 0, ptr %11, align 4
  br label %89

89:                                               ; preds = %106, %88
  %90 = load i32, ptr %11, align 4
  %91 = load ptr, ptr %6, align 8
  %92 = getelementptr inbounds %struct.If_Man_t_, ptr %91, i32 0, i32 7
  %93 = load ptr, ptr %92, align 8
  %94 = call i32 @Vec_PtrSize(ptr noundef %93)
  %95 = icmp slt i32 %90, %94
  br i1 %95, label %96, label %102

96:                                               ; preds = %89
  %97 = load ptr, ptr %6, align 8
  %98 = getelementptr inbounds %struct.If_Man_t_, ptr %97, i32 0, i32 7
  %99 = load ptr, ptr %98, align 8
  %100 = load i32, ptr %11, align 4
  %101 = call ptr @Vec_PtrEntry(ptr noundef %99, i32 noundef %100)
  store ptr %101, ptr %8, align 8
  br label %102

102:                                              ; preds = %96, %89
  %103 = phi i1 [ false, %89 ], [ true, %96 ]
  br i1 %103, label %104, label %109

104:                                              ; preds = %102
  %105 = load ptr, ptr %8, align 8
  call void @If_CutSetData(ptr noundef %105, ptr noundef null)
  br label %106

106:                                              ; preds = %104
  %107 = load i32, ptr %11, align 4
  %108 = add nsw i32 %107, 1
  store i32 %108, ptr %11, align 4
  br label %89, !llvm.loop !10

109:                                              ; preds = %102
  %110 = load ptr, ptr %9, align 8
  store ptr %110, ptr %4, align 8
  br label %111

111:                                              ; preds = %109, %58
  %112 = load ptr, ptr %4, align 8
  ret ptr %112
}