; Function Attrs: nounwind uwtable
define ptr @Nwk_NodeIfToHop(ptr noundef %0, ptr noundef %1, ptr noundef %2) local_unnamed_addr #2 {
  %4 = getelementptr inbounds nuw i8, ptr %2, i64 116
  %5 = getelementptr inbounds nuw i8, ptr %2, i64 108
  %6 = load i64, ptr %5, align 4
  %7 = and i64 %6, 4278190080
  %.not50 = icmp eq i64 %7, 0
  br i1 %.not50, label %.critedge, label %.lr.ph

.lr.ph:                                           ; preds = %3
  %8 = getelementptr i8, ptr %1, i64 40
  br label %9

9:                                                ; preds = %.lr.ph, %16
  %indvars.iv = phi i64 [ 0, %.lr.ph ], [ %indvars.iv.next, %16 ]
  %10 = getelementptr inbounds nuw [0 x i32], ptr %4, i64 0, i64 %indvars.iv
  %11 = load i32, ptr %10, align 4
  %.val40 = load ptr, ptr %8, align 8
  %12 = getelementptr i8, ptr %.val40, i64 8
  %.val40.val = load ptr, ptr %12, align 8
  %13 = sext i32 %11 to i64
  %14 = getelementptr inbounds ptr, ptr %.val40.val, i64 %13
  %15 = load ptr, ptr %14, align 8
  %.not = icmp eq ptr %15, null
  br i1 %.not, label %.critedge, label %16

16:                                               ; preds = %9
  %17 = getelementptr inbounds nuw i8, ptr %15, i64 80
  %18 = trunc nuw nsw i64 %indvars.iv to i32
  %19 = tail call ptr @Hop_IthVar(ptr noundef %0, i32 noundef %18) #15
  store ptr %19, ptr %17, align 8
  %indvars.iv.next = add nuw nsw i64 %indvars.iv, 1
  %20 = load i64, ptr %5, align 4
  %21 = lshr i64 %20, 24
  %22 = and i64 %21, 255
  %23 = icmp samesign ult i64 %indvars.iv.next, %22
  br i1 %23, label %9, label %.critedge, !llvm.loop !8

.critedge:                                        ; preds = %9, %16, %3
  %24 = getelementptr inbounds nuw i8, ptr %1, i64 56
  %25 = load ptr, ptr %24, align 8
  %26 = getelementptr inbounds nuw i8, ptr %25, i64 4
  store i32 0, ptr %26, align 4
  %27 = load ptr, ptr %24, align 8
  %28 = tail call ptr @Nwk_NodeIfToHop2_rec(ptr noundef %0, ptr noundef %1, ptr noundef nonnull %2, ptr noundef %27)
  %29 = icmp eq ptr %28, inttoptr (i64 1 to ptr)
  br i1 %29, label %33, label %.preheader

.preheader:                                       ; preds = %.critedge
  %30 = load i64, ptr %5, align 4
  %31 = and i64 %30, 4278190080
  %.not51 = icmp eq i64 %31, 0
  br i1 %.not51, label %.critedge2, label %.lr.ph45

.lr.ph45:                                         ; preds = %.preheader
  %32 = getelementptr i8, ptr %1, i64 40
  br label %34

33:                                               ; preds = %.critedge
  %puts = tail call i32 @puts(ptr nonnull dereferenceable(1) @str)
  br label %.critedge4

34:                                               ; preds = %.lr.ph45, %41
  %indvars.iv53 = phi i64 [ 0, %.lr.ph45 ], [ %indvars.iv.next54, %41 ]
  %35 = getelementptr inbounds nuw [0 x i32], ptr %4, i64 0, i64 %indvars.iv53
  %36 = load i32, ptr %35, align 4
  %.val41 = load ptr, ptr %32, align 8
  %37 = getelementptr i8, ptr %.val41, i64 8
  %.val41.val = load ptr, ptr %37, align 8
  %38 = sext i32 %36 to i64
  %39 = getelementptr inbounds ptr, ptr %.val41.val, i64 %38
  %40 = load ptr, ptr %39, align 8
  %.not38 = icmp eq ptr %40, null
  br i1 %.not38, label %.critedge2, label %41

41:                                               ; preds = %34
  %42 = getelementptr inbounds nuw i8, ptr %40, i64 80
  store ptr null, ptr %42, align 8
  %indvars.iv.next54 = add nuw nsw i64 %indvars.iv53, 1
  %43 = load i64, ptr %5, align 4
  %44 = lshr i64 %43, 24
  %45 = and i64 %44, 255
  %46 = icmp samesign ult i64 %indvars.iv.next54, %45
  br i1 %46, label %34, label %.critedge2, !llvm.loop !9

.critedge2:                                       ; preds = %34, %41, %.preheader
  %47 = load ptr, ptr %24, align 8
  %48 = getelementptr i8, ptr %47, i64 4
  %.val47 = load i32, ptr %48, align 4
  %49 = icmp sgt i32 %.val47, 0
  br i1 %49, label %.lr.ph49, label %.critedge4

.lr.ph49:                                         ; preds = %.critedge2, %.lr.ph49
  %indvars.iv56 = phi i64 [ %indvars.iv.next57, %.lr.ph49 ], [ 0, %.critedge2 ]
  %50 = phi ptr [ %54, %.lr.ph49 ], [ %47, %.critedge2 ]
  %51 = getelementptr i8, ptr %50, i64 8
  %.val39 = load ptr, ptr %51, align 8
  %52 = getelementptr inbounds nuw ptr, ptr %.val39, i64 %indvars.iv56
  %53 = load ptr, ptr %52, align 8
  store ptr null, ptr %53, align 8
  %indvars.iv.next57 = add nuw nsw i64 %indvars.iv56, 1
  %54 = load ptr, ptr %24, align 8
  %55 = getelementptr i8, ptr %54, i64 4
  %.val = load i32, ptr %55, align 4
  %56 = sext i32 %.val to i64
  %57 = icmp slt i64 %indvars.iv.next57, %56
  br i1 %57, label %.lr.ph49, label %.critedge4, !llvm.loop !10

.critedge4:                                       ; preds = %.lr.ph49, %.critedge2, %33
  %.034 = phi ptr [ null, %33 ], [ %28, %.critedge2 ], [ %28, %.lr.ph49 ]
  ret ptr %.034
}